target datalayout = "e-m:e-p270:32:32-p271:32:32-p272:64:64-i64:64-i128:128-f80:128-n8:16:32:64-S128"
target triple = "x86_64-pc-linux-gnu"

%"struct.ODDLParser::Reference" = type { i64, ptr }

@_ZN10ODDLParser4NameD1Ev = hidden unnamed_addr alias void (ptr), ptr @_ZN10ODDLParser4NameD2Ev

; Function Attrs: mustprogress nounwind uwtable
define hidden void @_ZN10ODDLParser9ReferenceD2Ev(ptr noundef nonnull align 8 dereferenceable(16) %0) unnamed_addr #1 align 2 {
  %2 = alloca ptr, align 8
  %3 = alloca i64, align 8
  store ptr %0, ptr %2, align 8
  %4 = load ptr, ptr %2, align 8
  call void @llvm.lifetime.start.p0(i64 8, ptr %3) #10
  store i64 0, ptr %3, align 8
  br label %5

5:                                                ; preds = %20, %1
  %6 = load i64, ptr %3, align 8
  %7 = getelementptr inbounds nuw %"struct.ODDLParser::Reference", ptr %4, i32 0, i32 0
  %8 = load i64, ptr %7, align 8
  %9 = icmp ult i64 %6, %8
  br i1 %9, label %11, label %10

10:                                               ; preds = %5
  call void @llvm.lifetime.end.p0(i64 8, ptr %3) #10
  br label %23

11:                                               ; preds = %5
  %12 = getelementptr inbounds nuw %"struct.ODDLParser::Reference", ptr %4, i32 0, i32 1
  %13 = load ptr, ptr %12, align 8
  %14 = load i64, ptr %3, align 8
  %15 = getelementptr inbounds nuw ptr, ptr %13, i64 %14
  %16 = load ptr, ptr %15, align 8
  %17 = icmp eq ptr %16, null
  br i1 %17, label %19, label %18

18:                                               ; preds = %11
  call void @_ZN10ODDLParser4NameD1Ev(ptr noundef nonnull align 8 dereferenceable(16) %16) #10
  call void @_ZdlPvm(ptr noundef %16, i64 noundef 16) #12
  br label %19

19:                                               ; preds = %18, %11
  br label %20

20:                                               ; preds = %19
  %21 = load i64, ptr %3, align 8
  %22 = add i64 %21, 1
  store i64 %22, ptr %3, align 8
  br label %5, !llvm.loop !6

23:                                               ; preds = %10
  %24 = getelementptr inbounds nuw %"struct.ODDLParser::Reference", ptr %4, i32 0, i32 0
  store i64 0, ptr %24, align 8
  %25 = getelementptr inbounds nuw %"struct.ODDLParser::Reference", ptr %4, i32 0, i32 1
  %26 = load ptr, ptr %25, align 8
  %27 = icmp eq ptr %26, null
  br i1 %27, label %29, label %28

28:                                               ; preds = %23
  call void @_ZdaPv(ptr noundef %26) #12
  br label %29

29:                                               ; preds = %28, %23
  %30 = getelementptr inbounds nuw %"struct.ODDLParser::Reference", ptr %4, i32 0, i32 1
  store ptr null, ptr %30, align 8
  ret void
}