; Function Attrs: mustprogress nounwind uwtable
define hidden void @_ZN10ODDLParser9ReferenceD2Ev(ptr noundef nonnull align 8 captures(none) dereferenceable(16) %0) unnamed_addr #1 align 2 personality ptr @__gxx_personality_v0 {
  %2 = load i64, ptr %0, align 8
  %.not = icmp eq i64 %2, 0
  br i1 %.not, label %._crit_edge, label %.lr.ph

.lr.ph:                                           ; preds = %1
  %3 = getelementptr inbounds nuw i8, ptr %0, i64 8
  br label %7

._crit_edge:                                      ; preds = %22, %1
  store i64 0, ptr %0, align 8
  %4 = getelementptr inbounds nuw i8, ptr %0, i64 8
  %5 = load ptr, ptr %4, align 8
  %6 = icmp eq ptr %5, null
  br i1 %6, label %27, label %26

7:                                                ; preds = %.lr.ph, %22
  %8 = phi i64 [ %2, %.lr.ph ], [ %23, %22 ]
  %.05 = phi i64 [ 0, %.lr.ph ], [ %24, %22 ]
  %9 = load ptr, ptr %3, align 8
  %10 = getelementptr inbounds nuw ptr, ptr %9, i64 %.05
  %11 = load ptr, ptr %10, align 8
  %12 = icmp eq ptr %11, null
  br i1 %12, label %22, label %13

13:                                               ; preds = %7
  %14 = getelementptr inbounds nuw i8, ptr %11, i64 8
  %15 = load ptr, ptr %14, align 8
  %16 = icmp eq ptr %15, null
  br i1 %16, label %_ZN10ODDLParser4NameD2Ev.exit, label %17

17:                                               ; preds = %13
  %18 = getelementptr inbounds nuw i8, ptr %15, i64 16
  %19 = load ptr, ptr %18, align 8
  %20 = icmp eq ptr %19, null
  br i1 %20, label %_ZN10ODDLParser4TextD2Ev.exit.i, label %21

21:                                               ; preds = %17
  tail call void @_ZdaPv(ptr noundef nonnull %19) #13
  br label %_ZN10ODDLParser4TextD2Ev.exit.i

_ZN10ODDLParser4TextD2Ev.exit.i:                  ; preds = %21, %17
  tail call void @_ZdlPvm(ptr noundef nonnull %15, i64 noundef 24) #13
  br label %_ZN10ODDLParser4NameD2Ev.exit

_ZN10ODDLParser4NameD2Ev.exit:                    ; preds = %13, %_ZN10ODDLParser4TextD2Ev.exit.i
  tail call void @_ZdlPvm(ptr noundef nonnull %11, i64 noundef 16) #13
  %.pre = load i64, ptr %0, align 8
  br label %22

22:                                               ; preds = %7, %_ZN10ODDLParser4NameD2Ev.exit
  %23 = phi i64 [ %8, %7 ], [ %.pre, %_ZN10ODDLParser4NameD2Ev.exit ]
  %24 = add nuw i64 %.05, 1
  %25 = icmp ult i64 %24, %23
  br i1 %25, label %7, label %._crit_edge, !llvm.loop !6

26:                                               ; preds = %._crit_edge
  tail call void @_ZdaPv(ptr noundef nonnull %5) #13
  br label %27

27:                                               ; preds = %26, %._crit_edge
  store ptr null, ptr %4, align 8
  ret void
}